; Function Attrs: mustprogress uwtable
define hidden void @_ZNK7datalog11rel_context15try_get_formulaEP9func_decl(ptr noalias sret(%class.obj_ref) align 8 %agg.result, ptr noundef nonnull align 8 dereferenceable(432) %this, ptr noundef %p) unnamed_addr #3 align 2 personality ptr @__gxx_personality_v0 {
entry:
  %m = getelementptr inbounds i8, ptr %this, i64 56
  %0 = load ptr, ptr %m, align 8
  store ptr null, ptr %agg.result, align 8
  %m_manager.i = getelementptr inbounds i8, ptr %agg.result, i64 8
  store ptr %0, ptr %m_manager.i, align 8
  %vtable = load ptr, ptr %this, align 8
  %vfn = getelementptr inbounds i8, ptr %vtable, i64 216
  %1 = load ptr, ptr %vfn, align 8
  %call = invoke noundef ptr %1(ptr noundef nonnull align 8 dereferenceable(432) %this, ptr noundef %p)
          to label %invoke.cont unwind label %lpad

invoke.cont:                                      ; preds = %entry
  %tobool.not = icmp eq ptr %call, null
  br i1 %tobool.not, label %nrvo.skipdtor, label %if.then

if.then:                                          ; preds = %invoke.cont
  %vtable2 = load ptr, ptr %call, align 8
  %vfn3 = getelementptr inbounds i8, ptr %vtable2, i64 144
  %2 = load ptr, ptr %vfn3, align 8
  invoke void %2(ptr noundef nonnull align 8 dereferenceable(28) %call, ptr noundef nonnull align 8 dereferenceable(16) %agg.result)
          to label %nrvo.skipdtor unwind label %lpad

lpad:                                             ; preds = %if.then, %entry
  %3 = landingpad { ptr, i32 }
          cleanup
  tail call void @_ZN7obj_refI4expr11ast_managerED2Ev(ptr noundef nonnull align 8 dereferenceable(16) %agg.result) #19
  resume { ptr, i32 } %3

nrvo.skipdtor:                                    ; preds = %invoke.cont, %if.then
  ret void
}